target datalayout = "e-m:e-p270:32:32-p271:32:32-p272:64:64-i64:64-i128:128-f80:128-n8:16:32:64-S128"
target triple = "x86_64-unknown-linux-gnu"

@migration_blockers = internal global [2 x ptr] zeroinitializer, align 16

; Function Attrs: nounwind sspstrong uwtable
define dso_local void @migrate_del_blocker(ptr noundef %reasonp) #0 {
entry:
  %reasonp.addr = alloca ptr, align 8
  %mode = alloca i32, align 4
  store ptr %reasonp, ptr %reasonp.addr, align 8
  %0 = load ptr, ptr %reasonp.addr, align 8
  %1 = load ptr, ptr %0, align 8
  %tobool = icmp ne ptr %1, null
  br i1 %tobool, label %if.then, label %if.end

if.then:                                          ; preds = %entry
  store i32 0, ptr %mode, align 4
  br label %for.cond

for.cond:                                         ; preds = %for.inc, %if.then
  %2 = load i32, ptr %mode, align 4
  %cmp = icmp ult i32 %2, 2
  br i1 %cmp, label %for.body, label %for.end

for.body:                                         ; preds = %for.cond
  %3 = load i32, ptr %mode, align 4
  %idxprom = zext i32 %3 to i64
  %arrayidx = getelementptr [2 x ptr], ptr @migration_blockers, i64 0, i64 %idxprom
  %4 = load ptr, ptr %arrayidx, align 8
  %5 = load ptr, ptr %reasonp.addr, align 8
  %6 = load ptr, ptr %5, align 8
  %call = call ptr @g_slist_remove(ptr noundef %4, ptr noundef %6)
  %7 = load i32, ptr %mode, align 4
  %idxprom1 = zext i32 %7 to i64
  %arrayidx2 = getelementptr [2 x ptr], ptr @migration_blockers, i64 0, i64 %idxprom1
  store ptr %call, ptr %arrayidx2, align 8
  br label %for.inc

for.inc:                                          ; preds = %for.body
  %8 = load i32, ptr %mode, align 4
  %inc = add i32 %8, 1
  store i32 %inc, ptr %mode, align 4
  br label %for.cond, !llvm.loop !13

for.end:                                          ; preds = %for.cond
  %9 = load ptr, ptr %reasonp.addr, align 8
  %10 = load ptr, ptr %9, align 8
  call void @error_free(ptr noundef %10)
  %11 = load ptr, ptr %reasonp.addr, align 8
  store ptr null, ptr %11, align 8
  br label %if.end

if.end:                                           ; preds = %for.end, %entry
  ret void
}