; Function Attrs: nounwind sspstrong uwtable
define dso_local void @migrate_del_blocker(ptr noundef captures(none) %reasonp) local_unnamed_addr #0 {
entry:
  %0 = load ptr, ptr %reasonp, align 8
  %tobool.not = icmp eq ptr %0, null
  br i1 %tobool.not, label %if.end, label %for.body

for.body:                                         ; preds = %entry
  %1 = load ptr, ptr @migration_blockers, align 16
  %2 = load ptr, ptr %reasonp, align 8
  %call = tail call ptr @g_slist_remove(ptr noundef %1, ptr noundef %2) #19
  store ptr %call, ptr @migration_blockers, align 16
  %3 = load ptr, ptr getelementptr inbounds nuw (i8, ptr @migration_blockers, i64 8), align 8
  %4 = load ptr, ptr %reasonp, align 8
  %call.c = tail call ptr @g_slist_remove(ptr noundef %3, ptr noundef %4) #19
  store ptr %call.c, ptr getelementptr inbounds nuw (i8, ptr @migration_blockers, i64 8), align 8
  %5 = load ptr, ptr %reasonp, align 8
  tail call void @error_free(ptr noundef %5) #19
  store ptr null, ptr %reasonp, align 8
  br label %if.end

if.end:                                           ; preds = %for.body, %entry
  ret void
}